target datalayout = "e-m:e-p270:32:32-p271:32:32-p272:64:64-i64:64-i128:128-f80:128-n8:16:32:64-S128"
target triple = "x86_64-pc-linux-gnu"

; Function Attrs: mustprogress nounwind uwtable
define internal noundef zeroext i1 @_ZL24can_be_compiled_at_levelR12methodHandlehi(ptr noundef nonnull align 8 dereferenceable(16) %0, i8 noundef zeroext %1, i32 noundef %2) #1 {
  %4 = alloca i1, align 1
  %5 = alloca ptr, align 8
  %6 = alloca i8, align 1
  %7 = alloca i32, align 4
  store ptr %0, ptr %5, align 8
  store i8 %1, ptr %6, align 1
  store i32 %2, ptr %7, align 4
  %8 = load i8, ptr %6, align 1
  %9 = icmp ne i8 %8, 0
  br i1 %9, label %10, label %14

10:                                               ; preds = %3
  %11 = load ptr, ptr %5, align 8
  %12 = load i32, ptr %7, align 4
  %13 = call noundef zeroext i1 @_ZN17CompilationPolicy19can_be_osr_compiledERK12methodHandlei(ptr noundef nonnull align 8 dereferenceable(16) %11, i32 noundef %12)
  store i1 %13, ptr %4, align 1
  br label %18

14:                                               ; preds = %3
  %15 = load ptr, ptr %5, align 8
  %16 = load i32, ptr %7, align 4
  %17 = call noundef zeroext i1 @_ZN17CompilationPolicy15can_be_compiledERK12methodHandlei(ptr noundef nonnull align 8 dereferenceable(16) %15, i32 noundef %16)
  store i1 %17, ptr %4, align 1
  br label %18

18:                                               ; preds = %14, %10
  %19 = load i1, ptr %4, align 1
  ret i1 %19
}