; Function Attrs: mustprogress nounwind uwtable
define internal fastcc noundef zeroext i1 @_ZL24can_be_compiled_at_levelR12methodHandlehi(ptr noundef nonnull align 8 dereferenceable(16) %0, i8 noundef zeroext %1, i32 noundef %2) unnamed_addr #0 {
  %.not = icmp eq i8 %1, 0
  br i1 %.not, label %6, label %4

4:                                                ; preds = %3
  %5 = tail call noundef zeroext i1 @_ZN17CompilationPolicy19can_be_osr_compiledERK12methodHandlei(ptr noundef nonnull align 8 dereferenceable(16) %0, i32 noundef %2) #15
  br label %8

6:                                                ; preds = %3
  %7 = tail call noundef zeroext i1 @_ZN17CompilationPolicy15can_be_compiledERK12methodHandlei(ptr noundef nonnull align 8 dereferenceable(16) %0, i32 noundef %2) #15
  br label %8

8:                                                ; preds = %6, %4
  %.0 = phi i1 [ %5, %4 ], [ %7, %6 ]
  ret i1 %.0
}